target datalayout = "e-m:e-p270:32:32-p271:32:32-p272:64:64-i64:64-i128:128-f80:128-n8:16:32:64-S128"
target triple = "x86_64-pc-linux-gnu"

%struct.topo_weight_info = type { ptr, i32, i64 }

@.str.1 = private unnamed_addr constant [27 x i8] c"%s: %s: Topo:%s weight:%lu\00", align 1
@plugin_type = external constant [0 x i8], align 1
@__func__.eval_nodes_topo_weight_log = private unnamed_addr constant [27 x i8] c"eval_nodes_topo_weight_log\00", align 1

; Function Attrs: nounwind uwtable
define dso_local i32 @eval_nodes_topo_weight_log(ptr noundef %0, ptr noundef %1) #0 {
  %3 = alloca ptr, align 8
  %4 = alloca ptr, align 8
  %5 = alloca ptr, align 8
  %6 = alloca ptr, align 8
  store ptr %0, ptr %3, align 8
  store ptr %1, ptr %4, align 8
  call void @llvm.lifetime.start.p0(i64 8, ptr %5) #4
  %7 = load ptr, ptr %3, align 8
  store ptr %7, ptr %5, align 8
  call void @llvm.lifetime.start.p0(i64 8, ptr %6) #4
  %8 = load ptr, ptr %5, align 8
  %9 = getelementptr inbounds nuw %struct.topo_weight_info, ptr %8, i32 0, i32 0
  %10 = load ptr, ptr %9, align 8
  %11 = call ptr @bitmap2node_name(ptr noundef %10)
  store ptr %11, ptr %6, align 8
  br label %12

12:                                               ; preds = %2
  br label %13

13:                                               ; preds = %12
  %14 = call i32 @get_log_level()
  %15 = icmp sge i32 %14, 3
  br i1 %15, label %16, label %21

16:                                               ; preds = %13
  %17 = load ptr, ptr %6, align 8
  %18 = load ptr, ptr %5, align 8
  %19 = getelementptr inbounds nuw %struct.topo_weight_info, ptr %18, i32 0, i32 2
  %20 = load i64, ptr %19, align 8
  call void (i32, ptr, ...) @log_var(i32 noundef 3, ptr noundef @.str.1, ptr noundef @plugin_type, ptr noundef @__func__.eval_nodes_topo_weight_log, ptr noundef %17, i64 noundef %20)
  br label %21

21:                                               ; preds = %16, %13
  br label %22

22:                                               ; preds = %21
  br label %23

23:                                               ; preds = %22
  br label %24

24:                                               ; preds = %23
  br label %25

25:                                               ; preds = %24
  call void @slurm_xfree(ptr noundef %6)
  call void @llvm.lifetime.end.p0(i64 8, ptr %6) #4
  call void @llvm.lifetime.end.p0(i64 8, ptr %5) #4
  ret i32 0
}