; Function Attrs: nounwind uwtable
define dso_local noundef i32 @eval_nodes_topo_weight_log(ptr noundef readonly captures(none) %0, ptr noundef readnone captures(none) %1) local_unnamed_addr #0 {
  %3 = alloca ptr, align 8
  call void @llvm.lifetime.start.p0(i64 8, ptr nonnull %3) #8
  %4 = load ptr, ptr %0, align 8
  %5 = tail call ptr @bitmap2node_name(ptr noundef %4) #8
  store ptr %5, ptr %3, align 8
  %6 = tail call i32 @get_log_level() #8
  %7 = icmp sgt i32 %6, 2
  br i1 %7, label %8, label %11

8:                                                ; preds = %2
  %9 = getelementptr inbounds nuw i8, ptr %0, i64 16
  %10 = load i64, ptr %9, align 8
  tail call void (i32, ptr, ...) @log_var(i32 noundef 3, ptr noundef nonnull @.str.1, ptr noundef nonnull @plugin_type, ptr noundef nonnull @__func__.eval_nodes_topo_weight_log, ptr noundef %5, i64 noundef %10) #8
  br label %11

11:                                               ; preds = %8, %2
  call void @slurm_xfree(ptr noundef nonnull %3) #8
  call void @llvm.lifetime.end.p0(i64 8, ptr nonnull %3) #8
  ret i32 0
}